; ModuleID = '23/243.c'
source_filename = "23/243.c"
target datalayout = "e-m:e-p270:32:32-p271:32:32-p272:64:64-i64:64-f80:128-n8:16:32:64-S128"
target triple = "x86_64-pc-linux-gnu"

@.str = private unnamed_addr constant [3 x i8] c"%s\00", align 1
@.str.1 = private unnamed_addr constant [2 x i8] c" \00", align 1

; Function Attrs: noinline nounwind uwtable
define dso_local i32 @main() #0 {
  %1 = alloca i32, align 4
  %2 = alloca [200 x i8], align 16
  %3 = alloca [50 x [50 x i8]], align 16
  %4 = alloca i32, align 4
  %5 = alloca i32, align 4
  %6 = alloca i32, align 4
  %7 = alloca i32, align 4
  store i32 0, i32* %1, align 4
  %8 = bitcast [50 x [50 x i8]]* %3 to i8*
  call void @llvm.memset.p0i8.i64(i8* align 16 %8, i8 0, i64 2500, i1 false)
  %9 = getelementptr inbounds [200 x i8], [200 x i8]* %2, i64 0, i64 0
  %10 = call i32 (i8*, ...) bitcast (i32 (...)* @gets to i32 (i8*, ...)*)(i8* %9)
  store i32 0, i32* %5, align 4
  store i32 0, i32* %7, align 4
  %11 = getelementptr inbounds [200 x i8], [200 x i8]* %2, i64 0, i64 0
  %12 = call i64 @strlen(i8* %11) #4
  %13 = trunc i64 %12 to i32
  store i32 %13, i32* %6, align 4
  store i32 0, i32* %4, align 4
  br label %14

14:                                               ; preds = %62, %0
  %15 = load i32, i32* %4, align 4
  %16 = load i32, i32* %6, align 4
  %17 = icmp slt i32 %15, %16
  br i1 %17, label %18, label %65

18:                                               ; preds = %14
  %19 = load i32, i32* %4, align 4
  %20 = sext i32 %19 to i64
  %21 = getelementptr inbounds [200 x i8], [200 x i8]* %2, i64 0, i64 %20
  %22 = load i8, i8* %21, align 1
  %23 = sext i8 %22 to i32
  %24 = icmp ne i32 %23, 32
  br i1 %24, label %25, label %37

25:                                               ; preds = %18
  %26 = load i32, i32* %4, align 4
  %27 = sext i32 %26 to i64
  %28 = getelementptr inbounds [200 x i8], [200 x i8]* %2, i64 0, i64 %27
  %29 = load i8, i8* %28, align 1
  %30 = load i32, i32* %7, align 4
  %31 = sext i32 %30 to i64
  %32 = getelementptr inbounds [50 x [50 x i8]], [50 x [50 x i8]]* %3, i64 0, i64 %31
  %33 = load i32, i32* %5, align 4
  %34 = add nsw i32 %33, 1
  store i32 %34, i32* %5, align 4
  %35 = sext i32 %33 to i64
  %36 = getelementptr inbounds [50 x i8], [50 x i8]* %32, i64 0, i64 %35
  store i8 %29, i8* %36, align 1
  br label %61

37:                                               ; preds = %18
  %38 = load i32, i32* %4, align 4
  %39 = sext i32 %38 to i64
  %40 = getelementptr inbounds [200 x i8], [200 x i8]* %2, i64 0, i64 %39
  %41 = load i8, i8* %40, align 1
  %42 = sext i8 %41 to i32
  %43 = icmp eq i32 %42, 32
  br i1 %43, label %44, label %60

44:                                               ; preds = %37
  %45 = load i32, i32* %4, align 4
  %46 = add nsw i32 %45, 1
  %47 = sext i32 %46 to i64
  %48 = getelementptr inbounds [200 x i8], [200 x i8]* %2, i64 0, i64 %47
  %49 = load i8, i8* %48, align 1
  %50 = sext i8 %49 to i32
  %51 = icmp ne i32 %50, 32
  br i1 %51, label %52, label %60

52:                                               ; preds = %44
  %53 = load i32, i32* %7, align 4
  %54 = add nsw i32 %53, 1
  store i32 %54, i32* %7, align 4
  %55 = sext i32 %53 to i64
  %56 = getelementptr inbounds [50 x [50 x i8]], [50 x [50 x i8]]* %3, i64 0, i64 %55
  %57 = load i32, i32* %5, align 4
  %58 = sext i32 %57 to i64
  %59 = getelementptr inbounds [50 x i8], [50 x i8]* %56, i64 0, i64 %58
  store i8 0, i8* %59, align 1
  store i32 0, i32* %5, align 4
  br label %60

60:                                               ; preds = %52, %44, %37
  br label %61

61:                                               ; preds = %60, %25
  br label %62

62:                                               ; preds = %61
  %63 = load i32, i32* %4, align 4
  %64 = add nsw i32 %63, 1
  store i32 %64, i32* %4, align 4
  br label %14

65:                                               ; preds = %14
  %66 = load i32, i32* %7, align 4
  %67 = sext i32 %66 to i64
  %68 = getelementptr inbounds [50 x [50 x i8]], [50 x [50 x i8]]* %3, i64 0, i64 %67
  %69 = load i32, i32* %5, align 4
  %70 = sext i32 %69 to i64
  %71 = getelementptr inbounds [50 x i8], [50 x i8]* %68, i64 0, i64 %70
  store i8 0, i8* %71, align 1
  %72 = load i32, i32* %7, align 4
  store i32 %72, i32* %4, align 4
  br label %73

73:                                               ; preds = %83, %65
  %74 = load i32, i32* %4, align 4
  %75 = icmp sgt i32 %74, 0
  br i1 %75, label %76, label %86

76:                                               ; preds = %73
  %77 = load i32, i32* %4, align 4
  %78 = sext i32 %77 to i64
  %79 = getelementptr inbounds [50 x [50 x i8]], [50 x [50 x i8]]* %3, i64 0, i64 %78
  %80 = getelementptr inbounds [50 x i8], [50 x i8]* %79, i64 0, i64 0
  %81 = call i32 (i8*, ...) @printf(i8* getelementptr inbounds ([3 x i8], [3 x i8]* @.str, i64 0, i64 0), i8* %80)
  %82 = call i32 (i8*, ...) @printf(i8* getelementptr inbounds ([2 x i8], [2 x i8]* @.str.1, i64 0, i64 0))
  br label %83

83:                                               ; preds = %76
  %84 = load i32, i32* %4, align 4
  %85 = add nsw i32 %84, -1
  store i32 %85, i32* %4, align 4
  br label %73

86:                                               ; preds = %73
  %87 = getelementptr inbounds [50 x [50 x i8]], [50 x [50 x i8]]* %3, i64 0, i64 0
  %88 = getelementptr inbounds [50 x i8], [50 x i8]* %87, i64 0, i64 0
  %89 = call i32 (i8*, ...) @printf(i8* getelementptr inbounds ([3 x i8], [3 x i8]* @.str, i64 0, i64 0), i8* %88)
  ret i32 0
}

; Function Attrs: argmemonly nounwind willreturn
declare void @llvm.memset.p0i8.i64(i8* nocapture writeonly, i8, i64, i1 immarg) #1

declare dso_local i32 @gets(...) #2

; Function Attrs: nounwind readonly
declare dso_local i64 @strlen(i8*) #3

declare dso_local i32 @printf(i8*, ...) #2


!llvm.module.flags = !{!0}
!llvm.ident = !{!1}

!0 = !{i32 1, !"wchar_size", i32 4}
!1 = !{!"clang version 10.0.0-4ubuntu1 "}
