; ModuleID = 'source-C-CXX/22/243.c'
source_filename = "source-C-CXX/22/243.c"
target datalayout = "e-m:e-p270:32:32-p271:32:32-p272:64:64-i64:64-f80:128-n8:16:32:64-S128"
target triple = "x86_64-pc-linux-gnu"

@.str = private unnamed_addr constant [3 x i8] c"%s\00", align 1

; Function Attrs: nounwind sspstrong uwtable
define dso_local i32 @main() local_unnamed_addr #0 {
  %1 = alloca [200 x i8], align 16
  %2 = alloca [50 x [50 x i8]], align 16
  %3 = getelementptr inbounds [200 x i8], [200 x i8]* %1, i64 0, i64 0
  call void @llvm.lifetime.start.p0i8(i64 200, i8* nonnull %3) #7
  %4 = getelementptr inbounds [50 x [50 x i8]], [50 x [50 x i8]]* %2, i64 0, i64 0, i64 0
  call void @llvm.lifetime.start.p0i8(i64 2500, i8* nonnull %4) #7
  call void @llvm.memset.p0i8.i64(i8* noundef nonnull align 16 dereferenceable(2500) %4, i8 0, i64 2500, i1 false)
  %5 = call i32 (i8*, ...) bitcast (i32 (...)* @gets to i32 (i8*, ...)*)(i8* nonnull %3) #7
  %6 = call i64 @strlen(i8* noundef nonnull %3) #8
  %7 = trunc i64 %6 to i32
  %8 = icmp sgt i32 %7, 0
  br i1 %8, label %11, label %9

9:                                                ; preds = %0
  %10 = getelementptr inbounds [50 x [50 x i8]], [50 x [50 x i8]]* %2, i64 0, i64 0, i64 0
  store i8 0, i8* %10, align 16, !tbaa !5
  br label %55

11:                                               ; preds = %0
  %12 = and i64 %6, 4294967295
  br label %13

13:                                               ; preds = %11, %36
  %14 = phi i64 [ 0, %11 ], [ %37, %36 ]
  %15 = phi i32 [ 0, %11 ], [ %39, %36 ]
  %16 = phi i32 [ 0, %11 ], [ %38, %36 ]
  %17 = getelementptr inbounds [200 x i8], [200 x i8]* %1, i64 0, i64 %14
  %18 = load i8, i8* %17, align 1, !tbaa !5
  %19 = icmp eq i8 %18, 32
  br i1 %19, label %26, label %20

20:                                               ; preds = %13
  %21 = sext i32 %15 to i64
  %22 = add nsw i32 %16, 1
  %23 = sext i32 %16 to i64
  %24 = getelementptr inbounds [50 x [50 x i8]], [50 x [50 x i8]]* %2, i64 0, i64 %21, i64 %23
  store i8 %18, i8* %24, align 1, !tbaa !5
  %25 = add nuw nsw i64 %14, 1
  br label %36

26:                                               ; preds = %13
  %27 = add nuw nsw i64 %14, 1
  %28 = getelementptr inbounds [200 x i8], [200 x i8]* %1, i64 0, i64 %27
  %29 = load i8, i8* %28, align 1, !tbaa !5
  %30 = icmp eq i8 %29, 32
  br i1 %30, label %36, label %31

31:                                               ; preds = %26
  %32 = add nsw i32 %15, 1
  %33 = sext i32 %15 to i64
  %34 = sext i32 %16 to i64
  %35 = getelementptr inbounds [50 x [50 x i8]], [50 x [50 x i8]]* %2, i64 0, i64 %33, i64 %34
  store i8 0, i8* %35, align 1, !tbaa !5
  br label %36

36:                                               ; preds = %20, %31, %26
  %37 = phi i64 [ %25, %20 ], [ %27, %31 ], [ %27, %26 ]
  %38 = phi i32 [ %22, %20 ], [ 0, %31 ], [ %16, %26 ]
  %39 = phi i32 [ %15, %20 ], [ %32, %31 ], [ %15, %26 ]
  %40 = icmp eq i64 %37, %12
  br i1 %40, label %41, label %13, !llvm.loop !8

41:                                               ; preds = %36
  %42 = sext i32 %39 to i64
  %43 = sext i32 %38 to i64
  %44 = getelementptr inbounds [50 x [50 x i8]], [50 x [50 x i8]]* %2, i64 0, i64 %42, i64 %43
  store i8 0, i8* %44, align 1, !tbaa !5
  %45 = icmp sgt i32 %39, 0
  br i1 %45, label %46, label %55

46:                                               ; preds = %41
  %47 = zext i32 %39 to i64
  br label %48

48:                                               ; preds = %46, %48
  %49 = phi i64 [ %47, %46 ], [ %54, %48 ]
  %50 = getelementptr inbounds [50 x [50 x i8]], [50 x [50 x i8]]* %2, i64 0, i64 %49, i64 0
  %51 = call i32 (i8*, ...) @printf(i8* nonnull dereferenceable(1) getelementptr inbounds ([3 x i8], [3 x i8]* @.str, i64 0, i64 0), i8* nonnull %50)
  %52 = call i32 @putchar(i32 32)
  %53 = icmp sgt i64 %49, 1
  %54 = add nsw i64 %49, -1
  br i1 %53, label %48, label %55, !llvm.loop !10

55:                                               ; preds = %48, %9, %41
  %56 = call i32 (i8*, ...) @printf(i8* nonnull dereferenceable(1) getelementptr inbounds ([3 x i8], [3 x i8]* @.str, i64 0, i64 0), i8* nonnull %4)
  call void @llvm.lifetime.end.p0i8(i64 2500, i8* nonnull %4) #7
  call void @llvm.lifetime.end.p0i8(i64 200, i8* nonnull %3) #7
  ret i32 0
}

; Function Attrs: argmemonly mustprogress nofree nosync nounwind willreturn
declare void @llvm.lifetime.start.p0i8(i64 immarg, i8* nocapture) #1

; Function Attrs: argmemonly mustprogress nofree nounwind willreturn writeonly
declare void @llvm.memset.p0i8.i64(i8* nocapture writeonly, i8, i64, i1 immarg) #2

declare i32 @gets(...) local_unnamed_addr #3

; Function Attrs: argmemonly mustprogress nofree nounwind readonly willreturn
declare i64 @strlen(i8* nocapture) local_unnamed_addr #4

; Function Attrs: nofree nounwind
declare noundef i32 @printf(i8* nocapture noundef readonly, ...) local_unnamed_addr #5

; Function Attrs: argmemonly mustprogress nofree nosync nounwind willreturn
declare void @llvm.lifetime.end.p0i8(i64 immarg, i8* nocapture) #1

; Function Attrs: nofree nounwind
declare noundef i32 @putchar(i32 noundef) local_unnamed_addr #6


!llvm.module.flags = !{!0, !1, !2, !3}
!llvm.ident = !{!4}

!0 = !{i32 1, !"wchar_size", i32 4}
!1 = !{i32 7, !"PIC Level", i32 2}
!2 = !{i32 7, !"PIE Level", i32 2}
!3 = !{i32 7, !"uwtable", i32 1}
!4 = !{!"clang version 13.0.0"}
!5 = !{!6, !6, i64 0}
!6 = !{!"omnipotent char", !7, i64 0}
!7 = !{!"Simple C/C++ TBAA"}
!8 = distinct !{!8, !9}
!9 = !{!"llvm.loop.mustprogress"}
!10 = distinct !{!10, !9}
